target datalayout = "e-m:e-p270:32:32-p271:32:32-p272:64:64-i64:64-i128:128-f80:128-n8:16:32:64-S128"
target triple = "x86_64-unknown-linux-gnu"

%class.btVector3 = type { [4 x float] }
%class.btAlignedObjectArray.0 = type <{ %class.btAlignedAllocator.1, [3 x i8], i32, i32, [4 x i8], ptr, i8, [7 x i8] }>
%class.btAlignedAllocator.1 = type { i8 }
%class.btAlignedObjectArray.4 = type <{ %class.btAlignedAllocator.5, [3 x i8], i32, i32, [4 x i8], ptr, i8, [7 x i8] }>
%class.btAlignedAllocator.5 = type { i8 }
%class.btDeformableContactProjection = type <{ ptr, ptr, %class.btAlignedObjectArray.8, %class.btHashMap, %class.btAlignedObjectArray.20, %class.btAlignedObjectArray.24, %class.btAlignedObjectArray.28, %class.btAlignedObjectArray.32, %class.btAlignedObjectArray.36, %class.btAlignedObjectArray.40, i8, [7 x i8] }>
%class.btAlignedObjectArray.8 = type <{ %class.btAlignedAllocator.9, [3 x i8], i32, i32, [4 x i8], ptr, i8, [7 x i8] }>
%class.btAlignedAllocator.9 = type { i8 }
%class.btHashMap = type { %class.btAlignedObjectArray.0, %class.btAlignedObjectArray.0, %class.btAlignedObjectArray.12, %class.btAlignedObjectArray.16 }
%class.btAlignedObjectArray.12 = type <{ %class.btAlignedAllocator.13, [3 x i8], i32, i32, [4 x i8], ptr, i8, [7 x i8] }>
%class.btAlignedAllocator.13 = type { i8 }
%class.btAlignedObjectArray.16 = type <{ %class.btAlignedAllocator.17, [3 x i8], i32, i32, [4 x i8], ptr, i8, [7 x i8] }>
%class.btAlignedAllocator.17 = type { i8 }
%class.btAlignedObjectArray.20 = type <{ %class.btAlignedAllocator.21, [3 x i8], i32, i32, [4 x i8], ptr, i8, [7 x i8] }>
%class.btAlignedAllocator.21 = type { i8 }
%class.btAlignedObjectArray.24 = type <{ %class.btAlignedAllocator.25, [3 x i8], i32, i32, [4 x i8], ptr, i8, [7 x i8] }>
%class.btAlignedAllocator.25 = type { i8 }
%class.btAlignedObjectArray.28 = type <{ %class.btAlignedAllocator.29, [3 x i8], i32, i32, [4 x i8], ptr, i8, [7 x i8] }>
%class.btAlignedAllocator.29 = type { i8 }
%class.btAlignedObjectArray.32 = type <{ %class.btAlignedAllocator.33, [3 x i8], i32, i32, [4 x i8], ptr, i8, [7 x i8] }>
%class.btAlignedAllocator.33 = type { i8 }
%class.btAlignedObjectArray.36 = type <{ %class.btAlignedAllocator.37, [3 x i8], i32, i32, [4 x i8], ptr, i8, [7 x i8] }>
%class.btAlignedAllocator.37 = type { i8 }
%class.btAlignedObjectArray.40 = type <{ %class.btAlignedAllocator.41, [3 x i8], i32, i32, [4 x i8], ptr, i8, [7 x i8] }>
%class.btAlignedAllocator.41 = type { i8 }
%struct.LagrangeMultiplier = type { i32, i32, [3 x float], [3 x %class.btVector3], [3 x i32] }

; Function Attrs: mustprogress nounwind uwtable
define linkonce_odr dso_local noundef ptr @_ZN9btVector3cvPfEv(ptr noundef nonnull align 4 dereferenceable(16) %this) #1 comdat align 2 {
entry:
  %this.addr = alloca ptr, align 8
  store ptr %this, ptr %this.addr, align 8
  %this1 = load ptr, ptr %this.addr, align 8
  %m_floats = getelementptr inbounds %class.btVector3, ptr %this1, i32 0, i32 0
  %arrayidx = getelementptr inbounds [4 x float], ptr %m_floats, i64 0, i64 0
  ret ptr %arrayidx
}

; Function Attrs: mustprogress nounwind uwtable
define linkonce_odr dso_local noundef float @_ZNK9btVector33dotERKS_(ptr noundef nonnull align 4 dereferenceable(16) %this, ptr noundef nonnull align 4 dereferenceable(16) %v) #1 comdat align 2 {
entry:
  %this.addr = alloca ptr, align 8
  %v.addr = alloca ptr, align 8
  store ptr %this, ptr %this.addr, align 8
  store ptr %v, ptr %v.addr, align 8
  %this1 = load ptr, ptr %this.addr, align 8
  %m_floats = getelementptr inbounds %class.btVector3, ptr %this1, i32 0, i32 0
  %arrayidx = getelementptr inbounds [4 x float], ptr %m_floats, i64 0, i64 0
  %0 = load float, ptr %arrayidx, align 4
  %1 = load ptr, ptr %v.addr, align 8
  %m_floats2 = getelementptr inbounds %class.btVector3, ptr %1, i32 0, i32 0
  %arrayidx3 = getelementptr inbounds [4 x float], ptr %m_floats2, i64 0, i64 0
  %2 = load float, ptr %arrayidx3, align 4
  %m_floats4 = getelementptr inbounds %class.btVector3, ptr %this1, i32 0, i32 0
  %arrayidx5 = getelementptr inbounds [4 x float], ptr %m_floats4, i64 0, i64 1
  %3 = load float, ptr %arrayidx5, align 4
  %4 = load ptr, ptr %v.addr, align 8
  %m_floats6 = getelementptr inbounds %class.btVector3, ptr %4, i32 0, i32 0
  %arrayidx7 = getelementptr inbounds [4 x float], ptr %m_floats6, i64 0, i64 1
  %5 = load float, ptr %arrayidx7, align 4
  %mul8 = fmul float %3, %5
  %6 = call float @llvm.fmuladd.f32(float %0, float %2, float %mul8)
  %m_floats9 = getelementptr inbounds %class.btVector3, ptr %this1, i32 0, i32 0
  %arrayidx10 = getelementptr inbounds [4 x float], ptr %m_floats9, i64 0, i64 2
  %7 = load float, ptr %arrayidx10, align 4
  %8 = load ptr, ptr %v.addr, align 8
  %m_floats11 = getelementptr inbounds %class.btVector3, ptr %8, i32 0, i32 0
  %arrayidx12 = getelementptr inbounds [4 x float], ptr %m_floats11, i64 0, i64 2
  %9 = load float, ptr %arrayidx12, align 4
  %10 = call float @llvm.fmuladd.f32(float %7, float %9, float %6)
  ret float %10
}

; Function Attrs: mustprogress nounwind uwtable
define linkonce_odr dso_local noundef nonnull align 4 dereferenceable(16) ptr @_ZNK20btAlignedObjectArrayI9btVector3EixEi(ptr noundef nonnull align 8 dereferenceable(25) %this, i32 noundef %n) #1 comdat align 2 {
entry:
  %this.addr = alloca ptr, align 8
  %n.addr = alloca i32, align 4
  store ptr %this, ptr %this.addr, align 8
  store i32 %n, ptr %n.addr, align 4
  %this1 = load ptr, ptr %this.addr, align 8
  %m_data = getelementptr inbounds %class.btAlignedObjectArray.4, ptr %this1, i32 0, i32 5
  %0 = load ptr, ptr %m_data, align 8
  %1 = load i32, ptr %n.addr, align 4
  %idxprom = sext i32 %1 to i64
  %arrayidx = getelementptr inbounds %class.btVector3, ptr %0, i64 %idxprom
  ret ptr %arrayidx
}

; Function Attrs: mustprogress nounwind uwtable
define linkonce_odr dso_local noundef nonnull align 4 dereferenceable(80) ptr @_ZN20btAlignedObjectArrayI18LagrangeMultiplierEixEi(ptr noundef nonnull align 8 dereferenceable(25) %this, i32 noundef %n) #1 comdat align 2 {
entry:
  %this.addr = alloca ptr, align 8
  %n.addr = alloca i32, align 4
  store ptr %this, ptr %this.addr, align 8
  store i32 %n, ptr %n.addr, align 4
  %this1 = load ptr, ptr %this.addr, align 8
  %m_data = getelementptr inbounds %class.btAlignedObjectArray.20, ptr %this1, i32 0, i32 5
  %0 = load ptr, ptr %m_data, align 8
  %1 = load i32, ptr %n.addr, align 4
  %idxprom = sext i32 %1 to i64
  %arrayidx = getelementptr inbounds %struct.LagrangeMultiplier, ptr %0, i64 %idxprom
  ret ptr %arrayidx
}

; Function Attrs: mustprogress nounwind uwtable
define linkonce_odr dso_local void @_ZN9btVector3C2ERKfS1_S1_(ptr noundef nonnull align 4 dereferenceable(16) %this, ptr noundef nonnull align 4 dereferenceable(4) %_x, ptr noundef nonnull align 4 dereferenceable(4) %_y, ptr noundef nonnull align 4 dereferenceable(4) %_z) unnamed_addr #1 comdat align 2 {
entry:
  %this.addr = alloca ptr, align 8
  %_x.addr = alloca ptr, align 8
  %_y.addr = alloca ptr, align 8
  %_z.addr = alloca ptr, align 8
  store ptr %this, ptr %this.addr, align 8
  store ptr %_x, ptr %_x.addr, align 8
  store ptr %_y, ptr %_y.addr, align 8
  store ptr %_z, ptr %_z.addr, align 8
  %this1 = load ptr, ptr %this.addr, align 8
  %0 = load ptr, ptr %_x.addr, align 8
  %1 = load float, ptr %0, align 4
  %m_floats = getelementptr inbounds %class.btVector3, ptr %this1, i32 0, i32 0
  %arrayidx = getelementptr inbounds [4 x float], ptr %m_floats, i64 0, i64 0
  store float %1, ptr %arrayidx, align 4
  %2 = load ptr, ptr %_y.addr, align 8
  %3 = load float, ptr %2, align 4
  %m_floats2 = getelementptr inbounds %class.btVector3, ptr %this1, i32 0, i32 0
  %arrayidx3 = getelementptr inbounds [4 x float], ptr %m_floats2, i64 0, i64 1
  store float %3, ptr %arrayidx3, align 4
  %4 = load ptr, ptr %_z.addr, align 8
  %5 = load float, ptr %4, align 4
  %m_floats4 = getelementptr inbounds %class.btVector3, ptr %this1, i32 0, i32 0
  %arrayidx5 = getelementptr inbounds [4 x float], ptr %m_floats4, i64 0, i64 2
  store float %5, ptr %arrayidx5, align 4
  %m_floats6 = getelementptr inbounds %class.btVector3, ptr %this1, i32 0, i32 0
  %arrayidx7 = getelementptr inbounds [4 x float], ptr %m_floats6, i64 0, i64 3
  store float 0.000000e+00, ptr %arrayidx7, align 4
  ret void
}

; Function Attrs: mustprogress nounwind uwtable
define linkonce_odr dso_local noundef i32 @_ZNK20btAlignedObjectArrayI18LagrangeMultiplierE4sizeEv(ptr noundef nonnull align 8 dereferenceable(25) %this) #1 comdat align 2 {
entry:
  %this.addr = alloca ptr, align 8
  store ptr %this, ptr %this.addr, align 8
  %this1 = load ptr, ptr %this.addr, align 8
  %m_size = getelementptr inbounds %class.btAlignedObjectArray.20, ptr %this1, i32 0, i32 2
  %0 = load i32, ptr %m_size, align 4
  ret i32 %0
}

; Function Attrs: mustprogress uwtable
define dso_local void @_ZN29btDeformableContactProjection16checkConstraintsERK20btAlignedObjectArrayI9btVector3E(ptr noundef nonnull align 8 dereferenceable(369) %this, ptr noundef nonnull align 8 dereferenceable(25) %x) #5 align 2 {
entry:
  %this.addr = alloca ptr, align 8
  %x.addr = alloca ptr, align 8
  %i = alloca i32, align 4
  %d = alloca %class.btVector3, align 4
  %ref.tmp = alloca float, align 4
  %ref.tmp2 = alloca float, align 4
  %ref.tmp3 = alloca float, align 4
  %lm = alloca ptr, align 8
  %j = alloca i32, align 4
  %k = alloca i32, align 4
  store ptr %this, ptr %this.addr, align 8
  store ptr %x, ptr %x.addr, align 8
  %this1 = load ptr, ptr %this.addr, align 8
  store i32 0, ptr %i, align 4
  br label %for.cond

for.cond:                                         ; preds = %for.inc24, %entry
  %0 = load i32, ptr %i, align 4
  %m_lagrangeMultipliers = getelementptr inbounds %class.btDeformableContactProjection, ptr %this1, i32 0, i32 4
  %call = call noundef i32 @_ZNK20btAlignedObjectArrayI18LagrangeMultiplierE4sizeEv(ptr noundef nonnull align 8 dereferenceable(25) %m_lagrangeMultipliers)
  %cmp = icmp slt i32 %0, %call
  br i1 %cmp, label %for.body, label %for.end26

for.body:                                         ; preds = %for.cond
  store float 0.000000e+00, ptr %ref.tmp, align 4
  store float 0.000000e+00, ptr %ref.tmp2, align 4
  store float 0.000000e+00, ptr %ref.tmp3, align 4
  call void @_ZN9btVector3C2ERKfS1_S1_(ptr noundef nonnull align 4 dereferenceable(16) %d, ptr noundef nonnull align 4 dereferenceable(4) %ref.tmp, ptr noundef nonnull align 4 dereferenceable(4) %ref.tmp2, ptr noundef nonnull align 4 dereferenceable(4) %ref.tmp3)
  %m_lagrangeMultipliers4 = getelementptr inbounds %class.btDeformableContactProjection, ptr %this1, i32 0, i32 4
  %1 = load i32, ptr %i, align 4
  %call5 = call noundef nonnull align 4 dereferenceable(80) ptr @_ZN20btAlignedObjectArrayI18LagrangeMultiplierEixEi(ptr noundef nonnull align 8 dereferenceable(25) %m_lagrangeMultipliers4, i32 noundef %1)
  store ptr %call5, ptr %lm, align 8
  store i32 0, ptr %j, align 4
  br label %for.cond6

for.cond6:                                        ; preds = %for.inc21, %for.body
  %2 = load i32, ptr %j, align 4
  %3 = load ptr, ptr %lm, align 8
  %m_num_constraints = getelementptr inbounds %struct.LagrangeMultiplier, ptr %3, i32 0, i32 0
  %4 = load i32, ptr %m_num_constraints, align 4
  %cmp7 = icmp slt i32 %2, %4
  br i1 %cmp7, label %for.body8, label %for.end23

for.body8:                                        ; preds = %for.cond6
  store i32 0, ptr %k, align 4
  br label %for.cond9

for.cond9:                                        ; preds = %for.inc, %for.body8
  %5 = load i32, ptr %k, align 4
  %6 = load ptr, ptr %lm, align 8
  %m_num_nodes = getelementptr inbounds %struct.LagrangeMultiplier, ptr %6, i32 0, i32 1
  %7 = load i32, ptr %m_num_nodes, align 4
  %cmp10 = icmp slt i32 %5, %7
  br i1 %cmp10, label %for.body11, label %for.end

for.body11:                                       ; preds = %for.cond9
  %8 = load ptr, ptr %lm, align 8
  %m_weights = getelementptr inbounds %struct.LagrangeMultiplier, ptr %8, i32 0, i32 2
  %9 = load i32, ptr %k, align 4
  %idxprom = sext i32 %9 to i64
  %arrayidx = getelementptr inbounds [3 x float], ptr %m_weights, i64 0, i64 %idxprom
  %10 = load float, ptr %arrayidx, align 4
  %11 = load ptr, ptr %x.addr, align 8
  %12 = load ptr, ptr %lm, align 8
  %m_indices = getelementptr inbounds %struct.LagrangeMultiplier, ptr %12, i32 0, i32 4
  %13 = load i32, ptr %k, align 4
  %idxprom12 = sext i32 %13 to i64
  %arrayidx13 = getelementptr inbounds [3 x i32], ptr %m_indices, i64 0, i64 %idxprom12
  %14 = load i32, ptr %arrayidx13, align 4
  %call14 = call noundef nonnull align 4 dereferenceable(16) ptr @_ZNK20btAlignedObjectArrayI9btVector3EixEi(ptr noundef nonnull align 8 dereferenceable(25) %11, i32 noundef %14)
  %15 = load ptr, ptr %lm, align 8
  %m_dirs = getelementptr inbounds %struct.LagrangeMultiplier, ptr %15, i32 0, i32 3
  %16 = load i32, ptr %j, align 4
  %idxprom15 = sext i32 %16 to i64
  %arrayidx16 = getelementptr inbounds [3 x %class.btVector3], ptr %m_dirs, i64 0, i64 %idxprom15
  %call17 = call noundef float @_ZNK9btVector33dotERKS_(ptr noundef nonnull align 4 dereferenceable(16) %call14, ptr noundef nonnull align 4 dereferenceable(16) %arrayidx16)
  %call18 = call noundef ptr @_ZN9btVector3cvPfEv(ptr noundef nonnull align 4 dereferenceable(16) %d)
  %17 = load i32, ptr %j, align 4
  %idxprom19 = sext i32 %17 to i64
  %arrayidx20 = getelementptr inbounds float, ptr %call18, i64 %idxprom19
  %18 = load float, ptr %arrayidx20, align 4
  %19 = call float @llvm.fmuladd.f32(float %10, float %call17, float %18)
  store float %19, ptr %arrayidx20, align 4
  br label %for.inc

for.inc:                                          ; preds = %for.body11
  %20 = load i32, ptr %k, align 4
  %inc = add nsw i32 %20, 1
  store i32 %inc, ptr %k, align 4
  br label %for.cond9, !llvm.loop !47

for.end:                                          ; preds = %for.cond9
  br label %for.inc21

for.inc21:                                        ; preds = %for.end
  %21 = load i32, ptr %j, align 4
  %inc22 = add nsw i32 %21, 1
  store i32 %inc22, ptr %j, align 4
  br label %for.cond6, !llvm.loop !48

for.end23:                                        ; preds = %for.cond6
  br label %for.inc24

for.inc24:                                        ; preds = %for.end23
  %22 = load i32, ptr %i, align 4
  %inc25 = add nsw i32 %22, 1
  store i32 %inc25, ptr %i, align 4
  br label %for.cond, !llvm.loop !49

for.end26:                                        ; preds = %for.cond
  ret void
}