; Function Attrs: mustprogress nofree norecurse nosync nounwind willreturn memory(read, inaccessiblemem: none) uwtable
define dso_local void @_ZN29btDeformableContactProjection16checkConstraintsERK20btAlignedObjectArrayI9btVector3E(ptr nocapture noundef nonnull readonly align 8 dereferenceable(369) %this, ptr nocapture noundef nonnull readonly align 8 dereferenceable(25) %x) local_unnamed_addr #9 align 2 {
entry:
  %d = alloca %class.btVector3, align 4
  %m_size.i = getelementptr inbounds i8, ptr %this, i64 180
  %0 = load i32, ptr %m_size.i, align 4
  %cmp22 = icmp sgt i32 %0, 0
  br i1 %cmp22, label %for.body.lr.ph, label %for.end26

for.body.lr.ph:                                   ; preds = %entry
  %m_data.i = getelementptr inbounds i8, ptr %this, i64 192
  %1 = load ptr, ptr %m_data.i, align 8
  %m_data.i13 = getelementptr inbounds i8, ptr %x, i64 16
  %2 = load ptr, ptr %m_data.i13, align 8
  %wide.trip.count34 = zext nneg i32 %0 to i64
  br label %for.body

for.body:                                         ; preds = %for.body.lr.ph, %for.inc24
  %indvars.iv31 = phi i64 [ 0, %for.body.lr.ph ], [ %indvars.iv.next32, %for.inc24 ]
  %arrayidx.i = getelementptr inbounds %struct.LagrangeMultiplier, ptr %1, i64 %indvars.iv31
  call void @llvm.memset.p0.i64(ptr noundef nonnull align 4 dereferenceable(16) %d, i8 0, i64 16, i1 false)
  %3 = load i32, ptr %arrayidx.i, align 4
  %cmp720 = icmp sgt i32 %3, 0
  br i1 %cmp720, label %for.cond9.preheader.lr.ph, label %for.inc24

for.cond9.preheader.lr.ph:                        ; preds = %for.body
  %m_num_nodes = getelementptr inbounds i8, ptr %arrayidx.i, i64 4
  %4 = load i32, ptr %m_num_nodes, align 4
  %cmp1018 = icmp sgt i32 %4, 0
  %m_weights = getelementptr inbounds i8, ptr %arrayidx.i, i64 8
  %m_indices = getelementptr inbounds i8, ptr %arrayidx.i, i64 68
  %m_dirs = getelementptr inbounds i8, ptr %arrayidx.i, i64 20
  br i1 %cmp1018, label %for.cond9.preheader.us.preheader, label %for.inc24

for.cond9.preheader.us.preheader:                 ; preds = %for.cond9.preheader.lr.ph
  %wide.trip.count29 = zext nneg i32 %3 to i64
  %wide.trip.count = zext nneg i32 %4 to i64
  br label %for.cond9.preheader.us

for.cond9.preheader.us:                           ; preds = %for.cond9.preheader.us.preheader, %for.cond9.for.inc21_crit_edge.us
  %indvars.iv26 = phi i64 [ 0, %for.cond9.preheader.us.preheader ], [ %indvars.iv.next27, %for.cond9.for.inc21_crit_edge.us ]
  %arrayidx16.us = getelementptr inbounds [3 x %class.btVector3], ptr %m_dirs, i64 0, i64 %indvars.iv26
  %5 = load float, ptr %arrayidx16.us, align 4
  %arrayidx7.i17.us = getelementptr inbounds i8, ptr %arrayidx16.us, i64 4
  %6 = load float, ptr %arrayidx7.i17.us, align 4
  %arrayidx12.i.us = getelementptr inbounds i8, ptr %arrayidx16.us, i64 8
  %7 = load float, ptr %arrayidx12.i.us, align 4
  %arrayidx20.us = getelementptr inbounds float, ptr %d, i64 %indvars.iv26
  %arrayidx20.promoted.us = load float, ptr %arrayidx20.us, align 4
  br label %for.body11.us

for.body11.us:                                    ; preds = %for.cond9.preheader.us, %for.body11.us
  %indvars.iv = phi i64 [ 0, %for.cond9.preheader.us ], [ %indvars.iv.next, %for.body11.us ]
  %8 = phi float [ %arrayidx20.promoted.us, %for.cond9.preheader.us ], [ %16, %for.body11.us ]
  %arrayidx.us = getelementptr inbounds [3 x float], ptr %m_weights, i64 0, i64 %indvars.iv
  %9 = load float, ptr %arrayidx.us, align 4
  %arrayidx13.us = getelementptr inbounds [3 x i32], ptr %m_indices, i64 0, i64 %indvars.iv
  %10 = load i32, ptr %arrayidx13.us, align 4
  %idxprom.i14.us = sext i32 %10 to i64
  %arrayidx.i15.us = getelementptr inbounds %class.btVector3, ptr %2, i64 %idxprom.i14.us
  %11 = load float, ptr %arrayidx.i15.us, align 4
  %arrayidx5.i16.us = getelementptr inbounds i8, ptr %arrayidx.i15.us, i64 4
  %12 = load float, ptr %arrayidx5.i16.us, align 4
  %mul8.i.us = fmul float %12, %6
  %13 = tail call float @llvm.fmuladd.f32(float %11, float %5, float %mul8.i.us)
  %arrayidx10.i.us = getelementptr inbounds i8, ptr %arrayidx.i15.us, i64 8
  %14 = load float, ptr %arrayidx10.i.us, align 4
  %15 = tail call noundef float @llvm.fmuladd.f32(float %14, float %7, float %13)
  %16 = tail call float @llvm.fmuladd.f32(float %9, float %15, float %8)
  %indvars.iv.next = add nuw nsw i64 %indvars.iv, 1
  %exitcond.not = icmp eq i64 %indvars.iv.next, %wide.trip.count
  br i1 %exitcond.not, label %for.cond9.for.inc21_crit_edge.us, label %for.body11.us, !llvm.loop !62

for.cond9.for.inc21_crit_edge.us:                 ; preds = %for.body11.us
  store float %16, ptr %arrayidx20.us, align 4
  %indvars.iv.next27 = add nuw nsw i64 %indvars.iv26, 1
  %exitcond30.not = icmp eq i64 %indvars.iv.next27, %wide.trip.count29
  br i1 %exitcond30.not, label %for.inc24, label %for.cond9.preheader.us, !llvm.loop !63

for.inc24:                                        ; preds = %for.cond9.for.inc21_crit_edge.us, %for.cond9.preheader.lr.ph, %for.body
  %indvars.iv.next32 = add nuw nsw i64 %indvars.iv31, 1
  %exitcond35.not = icmp eq i64 %indvars.iv.next32, %wide.trip.count34
  br i1 %exitcond35.not, label %for.end26, label %for.body, !llvm.loop !64

for.end26:                                        ; preds = %for.inc24, %entry
  ret void
}